target datalayout = "e-m:e-p270:32:32-p271:32:32-p272:64:64-i64:64-i128:128-f80:128-n8:16:32:64-S128"
target triple = "x86_64-pc-linux-gnu"

@.str.52 = private unnamed_addr constant [15 x i8] c"enable_seqscan\00", align 1
@.str.53 = private unnamed_addr constant [17 x i8] c"enable_indexscan\00", align 1
@.str.54 = private unnamed_addr constant [21 x i8] c"enable_indexonlyscan\00", align 1
@.str.55 = private unnamed_addr constant [18 x i8] c"enable_bitmapscan\00", align 1
@.str.56 = private unnamed_addr constant [15 x i8] c"enable_tidscan\00", align 1
@.str.57 = private unnamed_addr constant [16 x i8] c"enable_nestloop\00", align 1
@.str.58 = private unnamed_addr constant [17 x i8] c"enable_mergejoin\00", align 1
@.str.59 = private unnamed_addr constant [16 x i8] c"enable_hashjoin\00", align 1
@.str.60 = private unnamed_addr constant [6 x i8] c"false\00", align 1

; Function Attrs: nounwind uwtable
define dso_local zeroext i1 @set_plan_disabling_options(ptr noundef %0, i32 noundef %1, i32 noundef %2) #0 {
  %4 = alloca i1, align 1
  %5 = alloca ptr, align 8
  %6 = alloca i32, align 4
  %7 = alloca i32, align 4
  %8 = alloca ptr, align 8
  %9 = alloca i32, align 4
  store ptr %0, ptr %5, align 8
  store i32 %1, ptr %6, align 4
  store i32 %2, ptr %7, align 4
  call void @llvm.lifetime.start.p0(i64 8, ptr %8) #16
  store ptr null, ptr %8, align 8
  %10 = load ptr, ptr %5, align 8
  %11 = getelementptr inbounds i8, ptr %10, i64 0
  %12 = load i8, ptr %11, align 1
  %13 = sext i8 %12 to i32
  switch i32 %13, label %22 [
    i32 115, label %14
    i32 105, label %15
    i32 111, label %16
    i32 98, label %17
    i32 116, label %18
    i32 110, label %19
    i32 109, label %20
    i32 104, label %21
  ]

14:                                               ; preds = %3
  store ptr @.str.52, ptr %8, align 8
  br label %22

15:                                               ; preds = %3
  store ptr @.str.53, ptr %8, align 8
  br label %22

16:                                               ; preds = %3
  store ptr @.str.54, ptr %8, align 8
  br label %22

17:                                               ; preds = %3
  store ptr @.str.55, ptr %8, align 8
  br label %22

18:                                               ; preds = %3
  store ptr @.str.56, ptr %8, align 8
  br label %22

19:                                               ; preds = %3
  store ptr @.str.57, ptr %8, align 8
  br label %22

20:                                               ; preds = %3
  store ptr @.str.58, ptr %8, align 8
  br label %22

21:                                               ; preds = %3
  store ptr @.str.59, ptr %8, align 8
  br label %22

22:                                               ; preds = %3, %21, %20, %19, %18, %17, %16, %15, %14
  %23 = load ptr, ptr %8, align 8
  %24 = icmp ne ptr %23, null
  br i1 %24, label %25, label %29

25:                                               ; preds = %22
  %26 = load ptr, ptr %8, align 8
  %27 = load i32, ptr %6, align 4
  %28 = load i32, ptr %7, align 4
  call void @SetConfigOption(ptr noundef %26, ptr noundef @.str.60, i32 noundef %27, i32 noundef %28)
  store i1 true, ptr %4, align 1
  store i32 1, ptr %9, align 4
  br label %30

29:                                               ; preds = %22
  store i1 false, ptr %4, align 1
  store i32 1, ptr %9, align 4
  br label %30

30:                                               ; preds = %29, %25
  call void @llvm.lifetime.end.p0(i64 8, ptr %8) #16
  %31 = load i1, ptr %4, align 1
  ret i1 %31
}