; Function Attrs: nounwind uwtable
define dso_local noundef zeroext i1 @set_plan_disabling_options(ptr noundef readonly captures(none) %0, i32 noundef %1, i32 noundef %2) local_unnamed_addr #0 {
  %4 = load i8, ptr %0, align 1
  %switch.tableidx = add i8 %4, -98
  %5 = icmp ult i8 %switch.tableidx, 19
  br i1 %5, label %switch.hole_check, label %7

switch.hole_check:                                ; preds = %3
  %switch.maskindex = zext nneg i8 %switch.tableidx to i32
  %switch.shifted = lshr i32 407745, %switch.maskindex
  %switch.lobit = trunc i32 %switch.shifted to i1
  br i1 %switch.lobit, label %switch.lookup, label %7

switch.lookup:                                    ; preds = %switch.hole_check
  %6 = zext nneg i8 %switch.tableidx to i64
  %switch.gep = getelementptr inbounds nuw [19 x ptr], ptr @switch.table.process_postgres_switches, i64 0, i64 %6
  %switch.load = load ptr, ptr %switch.gep, align 8
  tail call void @SetConfigOption(ptr noundef nonnull %switch.load, ptr noundef nonnull @.str.60, i32 noundef %1, i32 noundef %2) #22
  br label %7

7:                                                ; preds = %switch.hole_check, %3, %switch.lookup
  %.05 = phi i1 [ true, %switch.lookup ], [ false, %3 ], [ false, %switch.hole_check ]
  ret i1 %.05
}